target datalayout = "e-m:e-p270:32:32-p271:32:32-p272:64:64-i64:64-i128:128-f80:128-n8:16:32:64-S128"
target triple = "x86_64-pc-linux-gnu"

%struct.ReorderBuffer = type { ptr, %struct.dlist_head, %struct.dlist_head, %struct.dclist_head, i32, ptr, ptr, ptr, ptr, ptr, ptr, ptr, ptr, ptr, ptr, ptr, ptr, ptr, ptr, ptr, ptr, ptr, ptr, ptr, ptr, i8, ptr, ptr, ptr, ptr, i64, ptr, i64, i64, ptr, i64, i64, i64, i64, i64, i64, i64, i64 }
%struct.dlist_head = type { %struct.dlist_node }
%struct.dlist_node = type { ptr, ptr }
%struct.dclist_head = type { %struct.dlist_head, i32 }
%struct.ReorderBufferTXN = type { i32, i32, i32, ptr, i64, i64, i64, ptr, i64, i16, i64, %union.anon.4, ptr, i64, %struct.dlist_node, ptr, i32, i64, i64, %struct.dlist_head, %struct.dlist_head, i64, ptr, ptr, %struct.dlist_head, i32, i32, ptr, %struct.dlist_node, %struct.dlist_node, %struct.pairingheap_node, i64, i64, ptr }
%union.anon.4 = type { i64 }
%struct.pairingheap_node = type { ptr, ptr, ptr }
%struct.RelFileLocator = type { i32, i32, i32 }
%struct.ReorderBufferTXNByIdEnt = type { i32, ptr }
%union.SharedInvalidationMessage = type { %struct.SharedInvalSmgrMsg }
%struct.SharedInvalSmgrMsg = type { i8, i8, i16, %struct.RelFileLocator }

; Function Attrs: inlinehint nounwind uwtable
define internal void @dlist_init(ptr noundef %0) #4 {
  %2 = alloca ptr, align 8
  store ptr %0, ptr %2, align 8
  %3 = load ptr, ptr %2, align 8
  %4 = getelementptr inbounds nuw %struct.dlist_head, ptr %3, i32 0, i32 0
  %5 = load ptr, ptr %2, align 8
  %6 = getelementptr inbounds nuw %struct.dlist_head, ptr %5, i32 0, i32 0
  %7 = getelementptr inbounds nuw %struct.dlist_node, ptr %6, i32 0, i32 0
  store ptr %4, ptr %7, align 8
  %8 = load ptr, ptr %2, align 8
  %9 = getelementptr inbounds nuw %struct.dlist_head, ptr %8, i32 0, i32 0
  %10 = getelementptr inbounds nuw %struct.dlist_node, ptr %9, i32 0, i32 1
  store ptr %4, ptr %10, align 8
  ret void
}

; Function Attrs: nounwind uwtable
define internal void @AssertTXNLsnOrder(ptr noundef %0) #0 {
  %2 = alloca ptr, align 8
  store ptr %0, ptr %2, align 8
  ret void
}

; Function Attrs: inlinehint nounwind uwtable
define internal void @dlist_push_tail(ptr noundef %0, ptr noundef %1) #4 {
  %3 = alloca ptr, align 8
  %4 = alloca ptr, align 8
  store ptr %0, ptr %3, align 8
  store ptr %1, ptr %4, align 8
  %5 = load ptr, ptr %3, align 8
  %6 = getelementptr inbounds nuw %struct.dlist_head, ptr %5, i32 0, i32 0
  %7 = getelementptr inbounds nuw %struct.dlist_node, ptr %6, i32 0, i32 1
  %8 = load ptr, ptr %7, align 8
  %9 = icmp eq ptr %8, null
  br i1 %9, label %10, label %12

10:                                               ; preds = %2
  %11 = load ptr, ptr %3, align 8
  call void @dlist_init(ptr noundef %11)
  br label %12

12:                                               ; preds = %10, %2
  %13 = load ptr, ptr %3, align 8
  %14 = getelementptr inbounds nuw %struct.dlist_head, ptr %13, i32 0, i32 0
  %15 = load ptr, ptr %4, align 8
  %16 = getelementptr inbounds nuw %struct.dlist_node, ptr %15, i32 0, i32 1
  store ptr %14, ptr %16, align 8
  %17 = load ptr, ptr %3, align 8
  %18 = getelementptr inbounds nuw %struct.dlist_head, ptr %17, i32 0, i32 0
  %19 = getelementptr inbounds nuw %struct.dlist_node, ptr %18, i32 0, i32 0
  %20 = load ptr, ptr %19, align 8
  %21 = load ptr, ptr %4, align 8
  %22 = getelementptr inbounds nuw %struct.dlist_node, ptr %21, i32 0, i32 0
  store ptr %20, ptr %22, align 8
  %23 = load ptr, ptr %4, align 8
  %24 = load ptr, ptr %4, align 8
  %25 = getelementptr inbounds nuw %struct.dlist_node, ptr %24, i32 0, i32 0
  %26 = load ptr, ptr %25, align 8
  %27 = getelementptr inbounds nuw %struct.dlist_node, ptr %26, i32 0, i32 1
  store ptr %23, ptr %27, align 8
  %28 = load ptr, ptr %4, align 8
  %29 = load ptr, ptr %3, align 8
  %30 = getelementptr inbounds nuw %struct.dlist_head, ptr %29, i32 0, i32 0
  %31 = getelementptr inbounds nuw %struct.dlist_node, ptr %30, i32 0, i32 0
  store ptr %28, ptr %31, align 8
  ret void
}

; Function Attrs: nounwind uwtable
define internal ptr @ReorderBufferGetTXN(ptr noundef %0) #0 {
  %2 = alloca ptr, align 8
  %3 = alloca ptr, align 8
  store ptr %0, ptr %2, align 8
  call void @llvm.lifetime.start.p0(i64 8, ptr %3) #13
  %4 = load ptr, ptr %2, align 8
  %5 = getelementptr inbounds nuw %struct.ReorderBuffer, ptr %4, i32 0, i32 28
  %6 = load ptr, ptr %5, align 8
  %7 = call ptr @MemoryContextAlloc(ptr noundef %6, i64 noundef 320)
  store ptr %7, ptr %3, align 8
  %8 = load ptr, ptr %3, align 8
  call void @llvm.memset.p0.i64(ptr align 8 %8, i8 0, i64 320, i1 false)
  %9 = load ptr, ptr %3, align 8
  %10 = getelementptr inbounds nuw %struct.ReorderBufferTXN, ptr %9, i32 0, i32 19
  call void @dlist_init(ptr noundef %10)
  %11 = load ptr, ptr %3, align 8
  %12 = getelementptr inbounds nuw %struct.ReorderBufferTXN, ptr %11, i32 0, i32 20
  call void @dlist_init(ptr noundef %12)
  %13 = load ptr, ptr %3, align 8
  %14 = getelementptr inbounds nuw %struct.ReorderBufferTXN, ptr %13, i32 0, i32 24
  call void @dlist_init(ptr noundef %14)
  %15 = load ptr, ptr %3, align 8
  %16 = getelementptr inbounds nuw %struct.ReorderBufferTXN, ptr %15, i32 0, i32 16
  store i32 -1, ptr %16, align 8
  %17 = load ptr, ptr %3, align 8
  %18 = getelementptr inbounds nuw %struct.ReorderBufferTXN, ptr %17, i32 0, i32 33
  store ptr null, ptr %18, align 8
  %19 = load ptr, ptr %3, align 8
  call void @llvm.lifetime.end.p0(i64 8, ptr %3) #13
  ret ptr %19
}

; Function Attrs: nounwind uwtable
define internal void @ReorderBufferExecuteInvalidations(i32 noundef %0, ptr noundef %1) #0 {
  %3 = alloca i32, align 4
  %4 = alloca ptr, align 8
  %5 = alloca i32, align 4
  store i32 %0, ptr %3, align 4
  store ptr %1, ptr %4, align 8
  call void @llvm.lifetime.start.p0(i64 4, ptr %5) #13
  store i32 0, ptr %5, align 4
  br label %6

6:                                                ; preds = %15, %2
  %7 = load i32, ptr %5, align 4
  %8 = load i32, ptr %3, align 4
  %9 = icmp ult i32 %7, %8
  br i1 %9, label %10, label %18

10:                                               ; preds = %6
  %11 = load ptr, ptr %4, align 8
  %12 = load i32, ptr %5, align 4
  %13 = sext i32 %12 to i64
  %14 = getelementptr inbounds %union.SharedInvalidationMessage, ptr %11, i64 %13
  call void @LocalExecuteInvalidationMessage(ptr noundef %14)
  br label %15

15:                                               ; preds = %10
  %16 = load i32, ptr %5, align 4
  %17 = add i32 %16, 1
  store i32 %17, ptr %5, align 4
  br label %6, !llvm.loop !9

18:                                               ; preds = %6
  call void @llvm.lifetime.end.p0(i64 4, ptr %5) #13
  ret void
}

; Function Attrs: nounwind uwtable
define internal ptr @ReorderBufferTXNByXid(ptr noundef %0, i32 noundef %1, i1 noundef zeroext %2, ptr noundef %3, i64 noundef %4, i1 noundef zeroext %5) #0 {
  %7 = alloca ptr, align 8
  %8 = alloca ptr, align 8
  %9 = alloca i32, align 4
  %10 = alloca i8, align 1
  %11 = alloca ptr, align 8
  %12 = alloca i64, align 8
  %13 = alloca i8, align 1
  %14 = alloca ptr, align 8
  %15 = alloca ptr, align 8
  %16 = alloca i8, align 1
  %17 = alloca i32, align 4
  store ptr %0, ptr %8, align 8
  store i32 %1, ptr %9, align 4
  %18 = zext i1 %2 to i8
  store i8 %18, ptr %10, align 1
  store ptr %3, ptr %11, align 8
  store i64 %4, ptr %12, align 8
  %19 = zext i1 %5 to i8
  store i8 %19, ptr %13, align 1
  call void @llvm.lifetime.start.p0(i64 8, ptr %14) #13
  call void @llvm.lifetime.start.p0(i64 8, ptr %15) #13
  call void @llvm.lifetime.start.p0(i64 1, ptr %16) #13
  %20 = load ptr, ptr %8, align 8
  %21 = getelementptr inbounds nuw %struct.ReorderBuffer, ptr %20, i32 0, i32 4
  %22 = load i32, ptr %21, align 8
  %23 = icmp ne i32 %22, 0
  br i1 %23, label %24, label %48

24:                                               ; preds = %6
  %25 = load ptr, ptr %8, align 8
  %26 = getelementptr inbounds nuw %struct.ReorderBuffer, ptr %25, i32 0, i32 4
  %27 = load i32, ptr %26, align 8
  %28 = load i32, ptr %9, align 4
  %29 = icmp eq i32 %27, %28
  br i1 %29, label %30, label %48

30:                                               ; preds = %24
  %31 = load ptr, ptr %8, align 8
  %32 = getelementptr inbounds nuw %struct.ReorderBuffer, ptr %31, i32 0, i32 5
  %33 = load ptr, ptr %32, align 8
  store ptr %33, ptr %14, align 8
  %34 = load ptr, ptr %14, align 8
  %35 = icmp ne ptr %34, null
  br i1 %35, label %36, label %43

36:                                               ; preds = %30
  %37 = load ptr, ptr %11, align 8
  %38 = icmp ne ptr %37, null
  br i1 %38, label %39, label %41

39:                                               ; preds = %36
  %40 = load ptr, ptr %11, align 8
  store i8 0, ptr %40, align 1
  br label %41

41:                                               ; preds = %39, %36
  %42 = load ptr, ptr %14, align 8
  store ptr %42, ptr %7, align 8
  store i32 1, ptr %17, align 4
  br label %114

43:                                               ; preds = %30
  %44 = load i8, ptr %10, align 1, !range !6, !noundef !7
  %45 = trunc i8 %44 to i1
  br i1 %45, label %47, label %46

46:                                               ; preds = %43
  store ptr null, ptr %7, align 8
  store i32 1, ptr %17, align 4
  br label %114

47:                                               ; preds = %43
  br label %48

48:                                               ; preds = %47, %24, %6
  %49 = load ptr, ptr %8, align 8
  %50 = getelementptr inbounds nuw %struct.ReorderBuffer, ptr %49, i32 0, i32 0
  %51 = load ptr, ptr %50, align 8
  %52 = load i8, ptr %10, align 1, !range !6, !noundef !7
  %53 = trunc i8 %52 to i1
  %54 = select i1 %53, i32 1, i32 0
  %55 = call ptr @hash_search(ptr noundef %51, ptr noundef %9, i32 noundef %54, ptr noundef %16)
  store ptr %55, ptr %15, align 8
  %56 = load i8, ptr %16, align 1, !range !6, !noundef !7
  %57 = trunc i8 %56 to i1
  br i1 %57, label %58, label %62

58:                                               ; preds = %48
  %59 = load ptr, ptr %15, align 8
  %60 = getelementptr inbounds nuw %struct.ReorderBufferTXNByIdEnt, ptr %59, i32 0, i32 1
  %61 = load ptr, ptr %60, align 8
  store ptr %61, ptr %14, align 8
  br label %97

62:                                               ; preds = %48
  %63 = load i8, ptr %10, align 1, !range !6, !noundef !7
  %64 = trunc i8 %63 to i1
  br i1 %64, label %65, label %95

65:                                               ; preds = %62
  %66 = load ptr, ptr %8, align 8
  %67 = call ptr @ReorderBufferGetTXN(ptr noundef %66)
  %68 = load ptr, ptr %15, align 8
  %69 = getelementptr inbounds nuw %struct.ReorderBufferTXNByIdEnt, ptr %68, i32 0, i32 1
  store ptr %67, ptr %69, align 8
  %70 = load i32, ptr %9, align 4
  %71 = load ptr, ptr %15, align 8
  %72 = getelementptr inbounds nuw %struct.ReorderBufferTXNByIdEnt, ptr %71, i32 0, i32 1
  %73 = load ptr, ptr %72, align 8
  %74 = getelementptr inbounds nuw %struct.ReorderBufferTXN, ptr %73, i32 0, i32 1
  store i32 %70, ptr %74, align 4
  %75 = load ptr, ptr %15, align 8
  %76 = getelementptr inbounds nuw %struct.ReorderBufferTXNByIdEnt, ptr %75, i32 0, i32 1
  %77 = load ptr, ptr %76, align 8
  store ptr %77, ptr %14, align 8
  %78 = load i64, ptr %12, align 8
  %79 = load ptr, ptr %14, align 8
  %80 = getelementptr inbounds nuw %struct.ReorderBufferTXN, ptr %79, i32 0, i32 4
  store i64 %78, ptr %80, align 8
  %81 = load ptr, ptr %8, align 8
  %82 = getelementptr inbounds nuw %struct.ReorderBuffer, ptr %81, i32 0, i32 30
  %83 = load i64, ptr %82, align 8
  %84 = load ptr, ptr %14, align 8
  %85 = getelementptr inbounds nuw %struct.ReorderBufferTXN, ptr %84, i32 0, i32 8
  store i64 %83, ptr %85, align 8
  %86 = load i8, ptr %13, align 1, !range !6, !noundef !7
  %87 = trunc i8 %86 to i1
  br i1 %87, label %88, label %94

88:                                               ; preds = %65
  %89 = load ptr, ptr %8, align 8
  %90 = getelementptr inbounds nuw %struct.ReorderBuffer, ptr %89, i32 0, i32 1
  %91 = load ptr, ptr %14, align 8
  %92 = getelementptr inbounds nuw %struct.ReorderBufferTXN, ptr %91, i32 0, i32 28
  call void @dlist_push_tail(ptr noundef %90, ptr noundef %92)
  %93 = load ptr, ptr %8, align 8
  call void @AssertTXNLsnOrder(ptr noundef %93)
  br label %94

94:                                               ; preds = %88, %65
  br label %96

95:                                               ; preds = %62
  store ptr null, ptr %14, align 8
  br label %96

96:                                               ; preds = %95, %94
  br label %97

97:                                               ; preds = %96, %58
  %98 = load i32, ptr %9, align 4
  %99 = load ptr, ptr %8, align 8
  %100 = getelementptr inbounds nuw %struct.ReorderBuffer, ptr %99, i32 0, i32 4
  store i32 %98, ptr %100, align 8
  %101 = load ptr, ptr %14, align 8
  %102 = load ptr, ptr %8, align 8
  %103 = getelementptr inbounds nuw %struct.ReorderBuffer, ptr %102, i32 0, i32 5
  store ptr %101, ptr %103, align 8
  %104 = load ptr, ptr %11, align 8
  %105 = icmp ne ptr %104, null
  br i1 %105, label %106, label %112

106:                                              ; preds = %97
  %107 = load i8, ptr %16, align 1, !range !6, !noundef !7
  %108 = trunc i8 %107 to i1
  %109 = xor i1 %108, true
  %110 = load ptr, ptr %11, align 8
  %111 = zext i1 %109 to i8
  store i8 %111, ptr %110, align 1
  br label %112

112:                                              ; preds = %106, %97
  %113 = load ptr, ptr %14, align 8
  store ptr %113, ptr %7, align 8
  store i32 1, ptr %17, align 4
  br label %114

114:                                              ; preds = %112, %46, %41
  call void @llvm.lifetime.end.p0(i64 1, ptr %16) #13
  call void @llvm.lifetime.end.p0(i64 8, ptr %15) #13
  call void @llvm.lifetime.end.p0(i64 8, ptr %14) #13
  %115 = load ptr, ptr %7, align 8
  ret ptr %115
}

; Function Attrs: nounwind uwtable
define dso_local void @ReorderBufferFinishPrepared(ptr noundef %0, i32 noundef %1, i64 noundef %2, i64 noundef %3, i64 noundef %4, i64 noundef %5, i16 noundef zeroext %6, i64 noundef %7, ptr noundef %8, i1 noundef zeroext %9) #0 {
  %11 = alloca ptr, align 8
  %12 = alloca i32, align 4
  %13 = alloca i64, align 8
  %14 = alloca i64, align 8
  %15 = alloca i64, align 8
  %16 = alloca i64, align 8
  %17 = alloca i16, align 2
  %18 = alloca i64, align 8
  %19 = alloca ptr, align 8
  %20 = alloca i8, align 1
  %21 = alloca ptr, align 8
  %22 = alloca i64, align 8
  %23 = alloca i64, align 8
  %24 = alloca i32, align 4
  store ptr %0, ptr %11, align 8
  store i32 %1, ptr %12, align 4
  store i64 %2, ptr %13, align 8
  store i64 %3, ptr %14, align 8
  store i64 %4, ptr %15, align 8
  store i64 %5, ptr %16, align 8
  store i16 %6, ptr %17, align 2
  store i64 %7, ptr %18, align 8
  store ptr %8, ptr %19, align 8
  %25 = zext i1 %9 to i8
  store i8 %25, ptr %20, align 1
  call void @llvm.lifetime.start.p0(i64 8, ptr %21) #13
  call void @llvm.lifetime.start.p0(i64 8, ptr %22) #13
  call void @llvm.lifetime.start.p0(i64 8, ptr %23) #13
  %26 = load ptr, ptr %11, align 8
  %27 = load i32, ptr %12, align 4
  %28 = load i64, ptr %13, align 8
  %29 = call ptr @ReorderBufferTXNByXid(ptr noundef %26, i32 noundef %27, i1 noundef zeroext false, ptr noundef null, i64 noundef %28, i1 noundef zeroext false)
  store ptr %29, ptr %21, align 8
  %30 = load ptr, ptr %21, align 8
  %31 = icmp eq ptr %30, null
  br i1 %31, label %32, label %33

32:                                               ; preds = %10
  store i32 1, ptr %24, align 4
  br label %113

33:                                               ; preds = %10
  %34 = load ptr, ptr %21, align 8
  %35 = getelementptr inbounds nuw %struct.ReorderBufferTXN, ptr %34, i32 0, i32 6
  %36 = load i64, ptr %35, align 8
  store i64 %36, ptr %22, align 8
  %37 = load ptr, ptr %21, align 8
  %38 = getelementptr inbounds nuw %struct.ReorderBufferTXN, ptr %37, i32 0, i32 11
  %39 = load i64, ptr %38, align 8
  store i64 %39, ptr %23, align 8
  %40 = load ptr, ptr %19, align 8
  %41 = call ptr @pstrdup(ptr noundef %40)
  %42 = load ptr, ptr %21, align 8
  %43 = getelementptr inbounds nuw %struct.ReorderBufferTXN, ptr %42, i32 0, i32 3
  store ptr %41, ptr %43, align 8
  %44 = load ptr, ptr %21, align 8
  %45 = getelementptr inbounds nuw %struct.ReorderBufferTXN, ptr %44, i32 0, i32 5
  %46 = load i64, ptr %45, align 8
  %47 = load i64, ptr %15, align 8
  %48 = icmp ult i64 %46, %47
  br i1 %48, label %49, label %71

49:                                               ; preds = %33
  %50 = load i8, ptr %20, align 1, !range !6, !noundef !7
  %51 = trunc i8 %50 to i1
  br i1 %51, label %52, label %71

52:                                               ; preds = %49
  %53 = load ptr, ptr %21, align 8
  %54 = load ptr, ptr %11, align 8
  %55 = load i32, ptr %12, align 4
  %56 = load ptr, ptr %21, align 8
  %57 = getelementptr inbounds nuw %struct.ReorderBufferTXN, ptr %56, i32 0, i32 5
  %58 = load i64, ptr %57, align 8
  %59 = load ptr, ptr %21, align 8
  %60 = getelementptr inbounds nuw %struct.ReorderBufferTXN, ptr %59, i32 0, i32 6
  %61 = load i64, ptr %60, align 8
  %62 = load ptr, ptr %21, align 8
  %63 = getelementptr inbounds nuw %struct.ReorderBufferTXN, ptr %62, i32 0, i32 11
  %64 = load i64, ptr %63, align 8
  %65 = load ptr, ptr %21, align 8
  %66 = getelementptr inbounds nuw %struct.ReorderBufferTXN, ptr %65, i32 0, i32 9
  %67 = load i16, ptr %66, align 8
  %68 = load ptr, ptr %21, align 8
  %69 = getelementptr inbounds nuw %struct.ReorderBufferTXN, ptr %68, i32 0, i32 10
  %70 = load i64, ptr %69, align 8
  call void @ReorderBufferReplay(ptr noundef %53, ptr noundef %54, i32 noundef %55, i64 noundef %58, i64 noundef %61, i64 noundef %64, i16 noundef zeroext %67, i64 noundef %70)
  br label %71

71:                                               ; preds = %52, %49, %33
  %72 = load i64, ptr %13, align 8
  %73 = load ptr, ptr %21, align 8
  %74 = getelementptr inbounds nuw %struct.ReorderBufferTXN, ptr %73, i32 0, i32 5
  store i64 %72, ptr %74, align 8
  %75 = load i64, ptr %14, align 8
  %76 = load ptr, ptr %21, align 8
  %77 = getelementptr inbounds nuw %struct.ReorderBufferTXN, ptr %76, i32 0, i32 6
  store i64 %75, ptr %77, align 8
  %78 = load i64, ptr %16, align 8
  %79 = load ptr, ptr %21, align 8
  %80 = getelementptr inbounds nuw %struct.ReorderBufferTXN, ptr %79, i32 0, i32 11
  store i64 %78, ptr %80, align 8
  %81 = load i16, ptr %17, align 2
  %82 = load ptr, ptr %21, align 8
  %83 = getelementptr inbounds nuw %struct.ReorderBufferTXN, ptr %82, i32 0, i32 9
  store i16 %81, ptr %83, align 8
  %84 = load i64, ptr %18, align 8
  %85 = load ptr, ptr %21, align 8
  %86 = getelementptr inbounds nuw %struct.ReorderBufferTXN, ptr %85, i32 0, i32 10
  store i64 %84, ptr %86, align 8
  %87 = load i8, ptr %20, align 1, !range !6, !noundef !7
  %88 = trunc i8 %87 to i1
  br i1 %88, label %89, label %96

89:                                               ; preds = %71
  %90 = load ptr, ptr %11, align 8
  %91 = getelementptr inbounds nuw %struct.ReorderBuffer, ptr %90, i32 0, i32 13
  %92 = load ptr, ptr %91, align 8
  %93 = load ptr, ptr %11, align 8
  %94 = load ptr, ptr %21, align 8
  %95 = load i64, ptr %13, align 8
  call void %92(ptr noundef %93, ptr noundef %94, i64 noundef %95)
  br label %104

96:                                               ; preds = %71
  %97 = load ptr, ptr %11, align 8
  %98 = getelementptr inbounds nuw %struct.ReorderBuffer, ptr %97, i32 0, i32 14
  %99 = load ptr, ptr %98, align 8
  %100 = load ptr, ptr %11, align 8
  %101 = load ptr, ptr %21, align 8
  %102 = load i64, ptr %22, align 8
  %103 = load i64, ptr %23, align 8
  call void %99(ptr noundef %100, ptr noundef %101, i64 noundef %102, i64 noundef %103)
  br label %104

104:                                              ; preds = %96, %89
  %105 = load ptr, ptr %21, align 8
  %106 = getelementptr inbounds nuw %struct.ReorderBufferTXN, ptr %105, i32 0, i32 26
  %107 = load i32, ptr %106, align 4
  %108 = load ptr, ptr %21, align 8
  %109 = getelementptr inbounds nuw %struct.ReorderBufferTXN, ptr %108, i32 0, i32 27
  %110 = load ptr, ptr %109, align 8
  call void @ReorderBufferExecuteInvalidations(i32 noundef %107, ptr noundef %110)
  %111 = load ptr, ptr %11, align 8
  %112 = load ptr, ptr %21, align 8
  call void @ReorderBufferCleanupTXN(ptr noundef %111, ptr noundef %112)
  store i32 0, ptr %24, align 4
  br label %113

113:                                              ; preds = %104, %32
  call void @llvm.lifetime.end.p0(i64 8, ptr %23) #13
  call void @llvm.lifetime.end.p0(i64 8, ptr %22) #13
  call void @llvm.lifetime.end.p0(i64 8, ptr %21) #13
  %114 = load i32, ptr %24, align 4
  switch i32 %114, label %116 [
    i32 0, label %115
    i32 1, label %115
  ]

115:                                              ; preds = %113, %113
  ret void

116:                                              ; preds = %113
  unreachable
}