; Function Attrs: nounwind uwtable
define dso_local void @ReorderBufferFinishPrepared(ptr noundef %0, i32 noundef %1, i64 noundef %2, i64 noundef %3, i64 noundef %4, i64 noundef %5, i16 noundef zeroext %6, i64 noundef %7, ptr noundef %8, i1 noundef zeroext %9) local_unnamed_addr #0 {
  %11 = alloca i32, align 4
  %12 = alloca i8, align 1
  call void @llvm.lifetime.start.p0(i64 4, ptr nonnull %11)
  store i32 %1, ptr %11, align 4
  call void @llvm.lifetime.start.p0(i64 1, ptr nonnull %12) #19
  %13 = getelementptr inbounds nuw i8, ptr %0, i64 64
  %14 = load i32, ptr %13, align 8
  %.not.i = icmp ne i32 %14, 0
  %15 = icmp eq i32 %14, %1
  %or.cond.i = and i1 %.not.i, %15
  br i1 %or.cond.i, label %16, label %19

16:                                               ; preds = %10
  %17 = getelementptr inbounds nuw i8, ptr %0, i64 72
  %18 = load ptr, ptr %17, align 8
  %.not34.i = icmp eq ptr %18, null
  call void @llvm.lifetime.end.p0(i64 1, ptr nonnull %12) #19
  call void @llvm.lifetime.end.p0(i64 4, ptr nonnull %11)
  br i1 %.not34.i, label %ReorderBufferTXNByXid.exit.thread, label %ReorderBufferTXNByXid.exit.thread46

19:                                               ; preds = %10
  %20 = load ptr, ptr %0, align 8
  %21 = call ptr @hash_search(ptr noundef %20, ptr noundef nonnull %11, i32 noundef 0, ptr noundef nonnull %12) #19
  %22 = load i8, ptr %12, align 1, !range !6, !noundef !7
  %23 = trunc nuw i8 %22 to i1
  br i1 %23, label %ReorderBufferTXNByXid.exit, label %ReorderBufferTXNByXid.exit.thread49

ReorderBufferTXNByXid.exit.thread49:              ; preds = %19
  %24 = load i32, ptr %11, align 4
  store i32 %24, ptr %13, align 8
  %25 = getelementptr inbounds nuw i8, ptr %0, i64 72
  store ptr null, ptr %25, align 8
  call void @llvm.lifetime.end.p0(i64 1, ptr nonnull %12) #19
  call void @llvm.lifetime.end.p0(i64 4, ptr nonnull %11)
  br label %ReorderBufferTXNByXid.exit.thread

ReorderBufferTXNByXid.exit:                       ; preds = %19
  %26 = getelementptr inbounds nuw i8, ptr %21, i64 8
  %27 = load ptr, ptr %26, align 8
  %28 = load i32, ptr %11, align 4
  store i32 %28, ptr %13, align 8
  %29 = getelementptr inbounds nuw i8, ptr %0, i64 72
  store ptr %27, ptr %29, align 8
  call void @llvm.lifetime.end.p0(i64 1, ptr nonnull %12) #19
  call void @llvm.lifetime.end.p0(i64 4, ptr nonnull %11)
  %30 = icmp eq ptr %27, null
  br i1 %30, label %ReorderBufferTXNByXid.exit.thread, label %ReorderBufferTXNByXid.exit.thread46

ReorderBufferTXNByXid.exit.thread46:              ; preds = %16, %ReorderBufferTXNByXid.exit
  %.0.i48 = phi ptr [ %27, %ReorderBufferTXNByXid.exit ], [ %18, %16 ]
  %31 = getelementptr inbounds nuw i8, ptr %.0.i48, i64 40
  %32 = load i64, ptr %31, align 8
  %33 = getelementptr inbounds nuw i8, ptr %.0.i48, i64 80
  %34 = load i64, ptr %33, align 8
  %35 = call ptr @pstrdup(ptr noundef %8) #19
  %36 = getelementptr inbounds nuw i8, ptr %.0.i48, i64 16
  store ptr %35, ptr %36, align 8
  %37 = getelementptr inbounds nuw i8, ptr %.0.i48, i64 32
  %38 = load i64, ptr %37, align 8
  %39 = icmp ult i64 %38, %4
  %brmerge.not = and i1 %9, %39
  br i1 %brmerge.not, label %40, label %47

40:                                               ; preds = %ReorderBufferTXNByXid.exit.thread46
  %41 = load i64, ptr %31, align 8
  %42 = load i64, ptr %33, align 8
  %43 = getelementptr inbounds nuw i8, ptr %.0.i48, i64 64
  %44 = load i16, ptr %43, align 8
  %45 = getelementptr inbounds nuw i8, ptr %.0.i48, i64 72
  %46 = load i64, ptr %45, align 8
  call fastcc void @ReorderBufferReplay(ptr noundef %.0.i48, ptr noundef nonnull %0, i64 noundef %38, i64 noundef %41, i64 noundef %42, i16 noundef zeroext %44, i64 noundef %46)
  br label %47

47:                                               ; preds = %ReorderBufferTXNByXid.exit.thread46, %40
  store i64 %2, ptr %37, align 8
  store i64 %3, ptr %31, align 8
  store i64 %5, ptr %33, align 8
  %48 = getelementptr inbounds nuw i8, ptr %.0.i48, i64 64
  store i16 %6, ptr %48, align 8
  %49 = getelementptr inbounds nuw i8, ptr %.0.i48, i64 72
  store i64 %7, ptr %49, align 8
  br i1 %9, label %50, label %53

50:                                               ; preds = %47
  %51 = getelementptr inbounds nuw i8, ptr %0, i64 136
  %52 = load ptr, ptr %51, align 8
  call void %52(ptr noundef nonnull %0, ptr noundef nonnull %.0.i48, i64 noundef %2) #19
  br label %56

53:                                               ; preds = %47
  %54 = getelementptr inbounds nuw i8, ptr %0, i64 144
  %55 = load ptr, ptr %54, align 8
  call void %55(ptr noundef nonnull %0, ptr noundef nonnull %.0.i48, i64 noundef %32, i64 noundef %34) #19
  br label %56

56:                                               ; preds = %53, %50
  %57 = getelementptr inbounds nuw i8, ptr %.0.i48, i64 228
  %58 = load i32, ptr %57, align 4
  %59 = getelementptr inbounds nuw i8, ptr %.0.i48, i64 232
  %60 = load ptr, ptr %59, align 8
  %.not.i44 = icmp eq i32 %58, 0
  br i1 %.not.i44, label %ReorderBufferExecuteInvalidations.exit, label %.lr.ph.i

.lr.ph.i:                                         ; preds = %56, %.lr.ph.i
  %.04.i = phi i32 [ %63, %.lr.ph.i ], [ 0, %56 ]
  %61 = sext i32 %.04.i to i64
  %62 = getelementptr inbounds %union.SharedInvalidationMessage, ptr %60, i64 %61
  call void @LocalExecuteInvalidationMessage(ptr noundef %62) #19
  %63 = add nuw i32 %.04.i, 1
  %exitcond.not.i = icmp eq i32 %63, %58
  br i1 %exitcond.not.i, label %ReorderBufferExecuteInvalidations.exit, label %.lr.ph.i, !llvm.loop !11

ReorderBufferExecuteInvalidations.exit:           ; preds = %.lr.ph.i, %56
  call fastcc void @ReorderBufferCleanupTXN(ptr noundef %0, ptr noundef nonnull %.0.i48)
  br label %ReorderBufferTXNByXid.exit.thread

ReorderBufferTXNByXid.exit.thread:                ; preds = %16, %ReorderBufferTXNByXid.exit.thread49, %ReorderBufferTXNByXid.exit, %ReorderBufferExecuteInvalidations.exit
  ret void
}